; Function Attrs: mustprogress nofree norecurse nosync nounwind willreturn memory(read, inaccessiblemem: none) uwtable
define noundef double @_ZNK10open_spiel10algorithms22TabularBestResponseMDP13OpponentReachERKSt6vectorIdSaIdEEi(ptr noundef nonnull readnone align 8 captures(none) dereferenceable(44) %0, ptr noundef nonnull readonly align 8 captures(none) dereferenceable(24) %1, i32 noundef %2) local_unnamed_addr #10 align 2 {
  %4 = getelementptr inbounds nuw i8, ptr %1, i64 8
  %5 = load ptr, ptr %4, align 8
  %6 = load ptr, ptr %1, align 8
  %.not12 = icmp eq ptr %5, %6
  br i1 %.not12, label %._crit_edge, label %.lr.ph.preheader

.lr.ph.preheader:                                 ; preds = %3
  %7 = ptrtoint ptr %5 to i64
  %8 = ptrtoint ptr %6 to i64
  %9 = sub i64 %7, %8
  %10 = ashr exact i64 %9, 3
  %11 = zext i32 %2 to i64
  %umax = tail call i64 @llvm.umax.i64(i64 %10, i64 1)
  br label %.lr.ph

.lr.ph:                                           ; preds = %.lr.ph.preheader, %16
  %indvars.iv = phi i64 [ 0, %.lr.ph.preheader ], [ %indvars.iv.next, %16 ]
  %.0810 = phi double [ 1.000000e+00, %.lr.ph.preheader ], [ %.1, %16 ]
  %.not = icmp eq i64 %indvars.iv, %11
  br i1 %.not, label %16, label %12

12:                                               ; preds = %.lr.ph
  %13 = getelementptr inbounds nuw double, ptr %6, i64 %indvars.iv
  %14 = load double, ptr %13, align 8
  %15 = fmul double %.0810, %14
  br label %16

16:                                               ; preds = %.lr.ph, %12
  %.1 = phi double [ %15, %12 ], [ %.0810, %.lr.ph ]
  %indvars.iv.next = add nuw nsw i64 %indvars.iv, 1
  %exitcond.not = icmp eq i64 %indvars.iv.next, %umax
  br i1 %exitcond.not, label %._crit_edge, label %.lr.ph, !llvm.loop !51

._crit_edge:                                      ; preds = %16, %3
  %.08.lcssa = phi double [ 1.000000e+00, %3 ], [ %.1, %16 ]
  ret double %.08.lcssa
}